target datalayout = "e-m:e-p270:32:32-p271:32:32-p272:64:64-i64:64-i128:128-f80:128-n8:16:32:64-S128"
target triple = "x86_64-pc-linux-gnu"

%struct.Pdr_Set_t_ = type { i64, i32, i32, i32, [0 x i32] }
%struct.Vec_Int_t_ = type { i32, i32, ptr }

; Function Attrs: nounwind uwtable
define internal void @Vec_IntSelectSort(ptr noundef %0, i32 noundef %1) #0 {
  %3 = alloca ptr, align 8
  %4 = alloca i32, align 4
  %5 = alloca i32, align 4
  %6 = alloca i32, align 4
  %7 = alloca i32, align 4
  %8 = alloca i32, align 4
  store ptr %0, ptr %3, align 8
  store i32 %1, ptr %4, align 4
  store i32 0, ptr %6, align 4
  br label %9

9:                                                ; preds = %60, %2
  %10 = load i32, ptr %6, align 4
  %11 = load i32, ptr %4, align 4
  %12 = sub nsw i32 %11, 1
  %13 = icmp slt i32 %10, %12
  br i1 %13, label %14, label %63

14:                                               ; preds = %9
  %15 = load i32, ptr %6, align 4
  store i32 %15, ptr %8, align 4
  %16 = load i32, ptr %6, align 4
  %17 = add nsw i32 %16, 1
  store i32 %17, ptr %7, align 4
  br label %18

18:                                               ; preds = %37, %14
  %19 = load i32, ptr %7, align 4
  %20 = load i32, ptr %4, align 4
  %21 = icmp slt i32 %19, %20
  br i1 %21, label %22, label %40

22:                                               ; preds = %18
  %23 = load ptr, ptr %3, align 8
  %24 = load i32, ptr %7, align 4
  %25 = sext i32 %24 to i64
  %26 = getelementptr inbounds i32, ptr %23, i64 %25
  %27 = load i32, ptr %26, align 4
  %28 = load ptr, ptr %3, align 8
  %29 = load i32, ptr %8, align 4
  %30 = sext i32 %29 to i64
  %31 = getelementptr inbounds i32, ptr %28, i64 %30
  %32 = load i32, ptr %31, align 4
  %33 = icmp slt i32 %27, %32
  br i1 %33, label %34, label %36

34:                                               ; preds = %22
  %35 = load i32, ptr %7, align 4
  store i32 %35, ptr %8, align 4
  br label %36

36:                                               ; preds = %34, %22
  br label %37

37:                                               ; preds = %36
  %38 = load i32, ptr %7, align 4
  %39 = add nsw i32 %38, 1
  store i32 %39, ptr %7, align 4
  br label %18, !llvm.loop !7

40:                                               ; preds = %18
  %41 = load ptr, ptr %3, align 8
  %42 = load i32, ptr %6, align 4
  %43 = sext i32 %42 to i64
  %44 = getelementptr inbounds i32, ptr %41, i64 %43
  %45 = load i32, ptr %44, align 4
  store i32 %45, ptr %5, align 4
  %46 = load ptr, ptr %3, align 8
  %47 = load i32, ptr %8, align 4
  %48 = sext i32 %47 to i64
  %49 = getelementptr inbounds i32, ptr %46, i64 %48
  %50 = load i32, ptr %49, align 4
  %51 = load ptr, ptr %3, align 8
  %52 = load i32, ptr %6, align 4
  %53 = sext i32 %52 to i64
  %54 = getelementptr inbounds i32, ptr %51, i64 %53
  store i32 %50, ptr %54, align 4
  %55 = load i32, ptr %5, align 4
  %56 = load ptr, ptr %3, align 8
  %57 = load i32, ptr %8, align 4
  %58 = sext i32 %57 to i64
  %59 = getelementptr inbounds i32, ptr %56, i64 %58
  store i32 %55, ptr %59, align 4
  br label %60

60:                                               ; preds = %40
  %61 = load i32, ptr %6, align 4
  %62 = add nsw i32 %61, 1
  store i32 %62, ptr %6, align 4
  br label %9, !llvm.loop !8

63:                                               ; preds = %9
  ret void
}

; Function Attrs: nounwind uwtable
define internal i32 @Vec_IntEntry(ptr noundef %0, i32 noundef %1) #0 {
  %3 = alloca ptr, align 8
  %4 = alloca i32, align 4
  store ptr %0, ptr %3, align 8
  store i32 %1, ptr %4, align 4
  %5 = load ptr, ptr %3, align 8
  %6 = getelementptr inbounds %struct.Vec_Int_t_, ptr %5, i32 0, i32 2
  %7 = load ptr, ptr %6, align 8
  %8 = load i32, ptr %4, align 4
  %9 = sext i32 %8 to i64
  %10 = getelementptr inbounds i32, ptr %7, i64 %9
  %11 = load i32, ptr %10, align 4
  ret i32 %11
}

; Function Attrs: nounwind uwtable
define internal i32 @Vec_IntSize(ptr noundef %0) #0 {
  %2 = alloca ptr, align 8
  store ptr %0, ptr %2, align 8
  %3 = load ptr, ptr %2, align 8
  %4 = getelementptr inbounds %struct.Vec_Int_t_, ptr %3, i32 0, i32 1
  %5 = load i32, ptr %4, align 4
  ret i32 %5
}

; Function Attrs: nounwind uwtable
define ptr @Pdr_SetCreate(ptr noundef %0, ptr noundef %1) #0 {
  %3 = alloca ptr, align 8
  %4 = alloca ptr, align 8
  %5 = alloca ptr, align 8
  %6 = alloca i32, align 4
  store ptr %0, ptr %3, align 8
  store ptr %1, ptr %4, align 8
  %7 = load ptr, ptr %3, align 8
  %8 = call i32 @Vec_IntSize(ptr noundef %7)
  %9 = load ptr, ptr %4, align 8
  %10 = call i32 @Vec_IntSize(ptr noundef %9)
  %11 = add nsw i32 %8, %10
  %12 = sext i32 %11 to i64
  %13 = mul i64 %12, 4
  %14 = add i64 24, %13
  %15 = mul i64 1, %14
  %16 = call noalias ptr @malloc(i64 noundef %15) #10
  store ptr %16, ptr %5, align 8
  %17 = load ptr, ptr %3, align 8
  %18 = call i32 @Vec_IntSize(ptr noundef %17)
  %19 = load ptr, ptr %5, align 8
  %20 = getelementptr inbounds %struct.Pdr_Set_t_, ptr %19, i32 0, i32 3
  store i32 %18, ptr %20, align 8
  %21 = load ptr, ptr %3, align 8
  %22 = call i32 @Vec_IntSize(ptr noundef %21)
  %23 = load ptr, ptr %4, align 8
  %24 = call i32 @Vec_IntSize(ptr noundef %23)
  %25 = add nsw i32 %22, %24
  %26 = load ptr, ptr %5, align 8
  %27 = getelementptr inbounds %struct.Pdr_Set_t_, ptr %26, i32 0, i32 2
  store i32 %25, ptr %27, align 4
  %28 = load ptr, ptr %5, align 8
  %29 = getelementptr inbounds %struct.Pdr_Set_t_, ptr %28, i32 0, i32 1
  store i32 1, ptr %29, align 8
  %30 = load ptr, ptr %5, align 8
  %31 = getelementptr inbounds %struct.Pdr_Set_t_, ptr %30, i32 0, i32 0
  store i64 0, ptr %31, align 8
  store i32 0, ptr %6, align 4
  br label %32

32:                                               ; preds = %60, %2
  %33 = load i32, ptr %6, align 4
  %34 = load ptr, ptr %5, align 8
  %35 = getelementptr inbounds %struct.Pdr_Set_t_, ptr %34, i32 0, i32 3
  %36 = load i32, ptr %35, align 8
  %37 = icmp slt i32 %33, %36
  br i1 %37, label %38, label %63

38:                                               ; preds = %32
  %39 = load ptr, ptr %3, align 8
  %40 = load i32, ptr %6, align 4
  %41 = call i32 @Vec_IntEntry(ptr noundef %39, i32 noundef %40)
  %42 = load ptr, ptr %5, align 8
  %43 = getelementptr inbounds %struct.Pdr_Set_t_, ptr %42, i32 0, i32 4
  %44 = load i32, ptr %6, align 4
  %45 = sext i32 %44 to i64
  %46 = getelementptr inbounds [0 x i32], ptr %43, i64 0, i64 %45
  store i32 %41, ptr %46, align 4
  %47 = load ptr, ptr %5, align 8
  %48 = getelementptr inbounds %struct.Pdr_Set_t_, ptr %47, i32 0, i32 4
  %49 = load i32, ptr %6, align 4
  %50 = sext i32 %49 to i64
  %51 = getelementptr inbounds [0 x i32], ptr %48, i64 0, i64 %50
  %52 = load i32, ptr %51, align 4
  %53 = srem i32 %52, 63
  %54 = zext i32 %53 to i64
  %55 = shl i64 1, %54
  %56 = load ptr, ptr %5, align 8
  %57 = getelementptr inbounds %struct.Pdr_Set_t_, ptr %56, i32 0, i32 0
  %58 = load i64, ptr %57, align 8
  %59 = or i64 %58, %55
  store i64 %59, ptr %57, align 8
  br label %60

60:                                               ; preds = %38
  %61 = load i32, ptr %6, align 4
  %62 = add nsw i32 %61, 1
  store i32 %62, ptr %6, align 4
  br label %32, !llvm.loop !4

63:                                               ; preds = %32
  %64 = load ptr, ptr %5, align 8
  %65 = getelementptr inbounds %struct.Pdr_Set_t_, ptr %64, i32 0, i32 4
  %66 = getelementptr inbounds [0 x i32], ptr %65, i64 0, i64 0
  %67 = load ptr, ptr %5, align 8
  %68 = getelementptr inbounds %struct.Pdr_Set_t_, ptr %67, i32 0, i32 3
  %69 = load i32, ptr %68, align 8
  call void @Vec_IntSelectSort(ptr noundef %66, i32 noundef %69)
  %70 = load ptr, ptr %5, align 8
  %71 = getelementptr inbounds %struct.Pdr_Set_t_, ptr %70, i32 0, i32 3
  %72 = load i32, ptr %71, align 8
  store i32 %72, ptr %6, align 4
  br label %73

73:                                               ; preds = %92, %63
  %74 = load i32, ptr %6, align 4
  %75 = load ptr, ptr %5, align 8
  %76 = getelementptr inbounds %struct.Pdr_Set_t_, ptr %75, i32 0, i32 2
  %77 = load i32, ptr %76, align 4
  %78 = icmp slt i32 %74, %77
  br i1 %78, label %79, label %95

79:                                               ; preds = %73
  %80 = load ptr, ptr %4, align 8
  %81 = load i32, ptr %6, align 4
  %82 = load ptr, ptr %5, align 8
  %83 = getelementptr inbounds %struct.Pdr_Set_t_, ptr %82, i32 0, i32 3
  %84 = load i32, ptr %83, align 8
  %85 = sub nsw i32 %81, %84
  %86 = call i32 @Vec_IntEntry(ptr noundef %80, i32 noundef %85)
  %87 = load ptr, ptr %5, align 8
  %88 = getelementptr inbounds %struct.Pdr_Set_t_, ptr %87, i32 0, i32 4
  %89 = load i32, ptr %6, align 4
  %90 = sext i32 %89 to i64
  %91 = getelementptr inbounds [0 x i32], ptr %88, i64 0, i64 %90
  store i32 %86, ptr %91, align 4
  br label %92

92:                                               ; preds = %79
  %93 = load i32, ptr %6, align 4
  %94 = add nsw i32 %93, 1
  store i32 %94, ptr %6, align 4
  br label %73, !llvm.loop !6

95:                                               ; preds = %73
  %96 = load ptr, ptr %5, align 8
  ret ptr %96
}