; Function Attrs: nofree nounwind uwtable
define noalias noundef ptr @Pdr_SetCreate(ptr noundef readonly captures(none) %0, ptr noundef readonly captures(none) %1) local_unnamed_addr #2 {
  %3 = getelementptr i8, ptr %0, i64 4
  %.val = load i32, ptr %3, align 4
  %4 = getelementptr i8, ptr %1, i64 4
  %.val31 = load i32, ptr %4, align 4
  %5 = add nsw i32 %.val31, %.val
  %6 = sext i32 %5 to i64
  %7 = shl nsw i64 %6, 2
  %8 = add nsw i64 %7, 24
  %9 = tail call noalias ptr @malloc(i64 noundef %8) #26
  %10 = getelementptr inbounds nuw i8, ptr %9, i64 16
  store i32 %.val, ptr %10, align 8
  %11 = getelementptr inbounds nuw i8, ptr %9, i64 12
  store i32 %5, ptr %11, align 4
  %12 = getelementptr inbounds nuw i8, ptr %9, i64 8
  store i32 1, ptr %12, align 8
  store i64 0, ptr %9, align 8
  %13 = icmp sgt i32 %.val, 0
  br i1 %13, label %.lr.ph, label %Vec_IntSelectSort.exit

.lr.ph:                                           ; preds = %2
  %14 = getelementptr i8, ptr %0, i64 8
  %.val35 = load ptr, ptr %14, align 8
  %15 = getelementptr inbounds nuw i8, ptr %9, i64 20
  %16 = zext nneg i32 %.val to i64
  %17 = shl nuw nsw i64 %16, 2
  tail call void @llvm.memcpy.p0.p0.i64(ptr nonnull align 4 %15, ptr align 4 %.val35, i64 %17, i1 false)
  br label %18

18:                                               ; preds = %.lr.ph, %18
  %indvars.iv = phi i64 [ 0, %.lr.ph ], [ %indvars.iv.next, %18 ]
  %19 = phi i64 [ 0, %.lr.ph ], [ %25, %18 ]
  %20 = getelementptr inbounds nuw i32, ptr %.val35, i64 %indvars.iv
  %21 = load i32, ptr %20, align 4
  %22 = srem i32 %21, 63
  %23 = zext nneg i32 %22 to i64
  %24 = shl nuw i64 1, %23
  %25 = or i64 %24, %19
  %indvars.iv.next = add nuw nsw i64 %indvars.iv, 1
  %exitcond.not = icmp eq i64 %indvars.iv.next, %16
  br i1 %exitcond.not, label %26, label %18, !llvm.loop !4

26:                                               ; preds = %18
  store i64 %25, ptr %9, align 8
  %27 = getelementptr inbounds nuw i8, ptr %9, i64 20
  %.not = icmp eq i32 %.val, 1
  br i1 %.not, label %Vec_IntSelectSort.exit, label %.lr.ph27.preheader.i

.lr.ph27.preheader.i:                             ; preds = %26
  %28 = add nsw i32 %.val, -1
  %wide.trip.count35.i = zext nneg i32 %28 to i64
  %wide.trip.count.i = zext nneg i32 %.val to i64
  br label %.lr.ph.preheader.i

.lr.ph.preheader.i:                               ; preds = %._crit_edge.i, %.lr.ph27.preheader.i
  %indvars.iv32.i = phi i64 [ 0, %.lr.ph27.preheader.i ], [ %indvars.iv.next33.i, %._crit_edge.i ]
  %indvars.iv.i = phi i64 [ 1, %.lr.ph27.preheader.i ], [ %indvars.iv.next.i, %._crit_edge.i ]
  %29 = trunc nuw nsw i64 %indvars.iv32.i to i32
  br label %.lr.ph.i

.lr.ph.i:                                         ; preds = %.lr.ph.i, %.lr.ph.preheader.i
  %indvars.iv29.i = phi i64 [ %indvars.iv.i, %.lr.ph.preheader.i ], [ %indvars.iv.next30.i, %.lr.ph.i ]
  %.024.i = phi i32 [ %29, %.lr.ph.preheader.i ], [ %spec.select.i, %.lr.ph.i ]
  %30 = getelementptr inbounds nuw i32, ptr %27, i64 %indvars.iv29.i
  %31 = load i32, ptr %30, align 4
  %32 = sext i32 %.024.i to i64
  %33 = getelementptr inbounds i32, ptr %27, i64 %32
  %34 = load i32, ptr %33, align 4
  %35 = icmp slt i32 %31, %34
  %36 = trunc nuw nsw i64 %indvars.iv29.i to i32
  %spec.select.i = select i1 %35, i32 %36, i32 %.024.i
  %indvars.iv.next30.i = add nuw nsw i64 %indvars.iv29.i, 1
  %exitcond.not.i = icmp eq i64 %indvars.iv.next30.i, %wide.trip.count.i
  br i1 %exitcond.not.i, label %._crit_edge.i, label %.lr.ph.i, !llvm.loop !6

._crit_edge.i:                                    ; preds = %.lr.ph.i
  %indvars.iv.next33.i = add nuw nsw i64 %indvars.iv32.i, 1
  %37 = getelementptr inbounds nuw i32, ptr %27, i64 %indvars.iv32.i
  %38 = load i32, ptr %37, align 4
  %39 = sext i32 %spec.select.i to i64
  %40 = getelementptr inbounds i32, ptr %27, i64 %39
  %41 = load i32, ptr %40, align 4
  store i32 %41, ptr %37, align 4
  store i32 %38, ptr %40, align 4
  %indvars.iv.next.i = add nuw nsw i64 %indvars.iv.i, 1
  %exitcond36.not.i = icmp eq i64 %indvars.iv.next33.i, %wide.trip.count35.i
  br i1 %exitcond36.not.i, label %Vec_IntSelectSort.exit.loopexit, label %.lr.ph.preheader.i, !llvm.loop !7

Vec_IntSelectSort.exit.loopexit:                  ; preds = %._crit_edge.i
  %.pre = load i32, ptr %10, align 8
  %.pre45 = load i32, ptr %11, align 4
  br label %Vec_IntSelectSort.exit

Vec_IntSelectSort.exit:                           ; preds = %2, %Vec_IntSelectSort.exit.loopexit, %26
  %42 = phi i32 [ %.pre45, %Vec_IntSelectSort.exit.loopexit ], [ %5, %26 ], [ %5, %2 ]
  %43 = phi i32 [ %.pre, %Vec_IntSelectSort.exit.loopexit ], [ %.val, %26 ], [ %.val, %2 ]
  %44 = icmp slt i32 %43, %42
  br i1 %44, label %.lr.ph39, label %._crit_edge40

.lr.ph39:                                         ; preds = %Vec_IntSelectSort.exit
  %45 = getelementptr i8, ptr %1, i64 8
  %.val36 = load ptr, ptr %45, align 8
  %46 = sext i32 %43 to i64
  %47 = getelementptr inbounds nuw i8, ptr %9, i64 20
  br label %48

48:                                               ; preds = %.lr.ph39, %48
  %indvars.iv42 = phi i64 [ %46, %.lr.ph39 ], [ %indvars.iv.next43, %48 ]
  %49 = load i32, ptr %10, align 8
  %50 = sext i32 %49 to i64
  %51 = sub nsw i64 %indvars.iv42, %50
  %52 = getelementptr inbounds i32, ptr %.val36, i64 %51
  %53 = load i32, ptr %52, align 4
  %54 = getelementptr inbounds [0 x i32], ptr %47, i64 0, i64 %indvars.iv42
  store i32 %53, ptr %54, align 4
  %indvars.iv.next43 = add nsw i64 %indvars.iv42, 1
  %55 = load i32, ptr %11, align 4
  %56 = sext i32 %55 to i64
  %57 = icmp slt i64 %indvars.iv.next43, %56
  br i1 %57, label %48, label %._crit_edge40, !llvm.loop !8

._crit_edge40:                                    ; preds = %48, %Vec_IntSelectSort.exit
  ret ptr %9
}